target datalayout = "e-m:e-p270:32:32-p271:32:32-p272:64:64-i64:64-i128:128-f80:128-n8:16:32:64-S128"
target triple = "x86_64-unknown-linux-gnu"

@.str.12 = private unnamed_addr constant [3 x i8] c")\0A\00", align 1
@.str.14 = private unnamed_addr constant [18 x i8] c"(get-consequences\00", align 1
@.str.15 = private unnamed_addr constant [14 x i8] c" iterations: \00", align 1
@.str.16 = private unnamed_addr constant [13 x i8] c" variables: \00", align 1
@.str.17 = private unnamed_addr constant [9 x i8] c" fixed: \00", align 1
@.str.18 = private unnamed_addr constant [11 x i8] c" unfixed: \00", align 1
@.str.19 = private unnamed_addr constant [13 x i8] c" fixed-eqs: \00", align 1

; Function Attrs: mustprogress uwtable
define hidden void @_ZN3smt7context28display_consequence_progressERSojjjjj(ptr noundef nonnull align 8 dereferenceable(11616) %this, ptr noundef nonnull align 8 dereferenceable(8) %out, i32 noundef %it, i32 noundef %nv, i32 noundef %fixed, i32 noundef %unfixed, i32 noundef %eq) #5 align 2 {
entry:
  %this.addr = alloca ptr, align 8
  %out.addr = alloca ptr, align 8
  %it.addr = alloca i32, align 4
  %nv.addr = alloca i32, align 4
  %fixed.addr = alloca i32, align 4
  %unfixed.addr = alloca i32, align 4
  %eq.addr = alloca i32, align 4
  store ptr %this, ptr %this.addr, align 8
  store ptr %out, ptr %out.addr, align 8
  store i32 %it, ptr %it.addr, align 4
  store i32 %nv, ptr %nv.addr, align 4
  store i32 %fixed, ptr %fixed.addr, align 4
  store i32 %unfixed, ptr %unfixed.addr, align 4
  store i32 %eq, ptr %eq.addr, align 4
  %0 = load ptr, ptr %out.addr, align 8
  %call = call noundef nonnull align 8 dereferenceable(8) ptr @_ZStlsISt11char_traitsIcEERSt13basic_ostreamIcT_ES5_PKc(ptr noundef nonnull align 8 dereferenceable(8) %0, ptr noundef @.str.14)
  %call2 = call noundef nonnull align 8 dereferenceable(8) ptr @_ZStlsISt11char_traitsIcEERSt13basic_ostreamIcT_ES5_PKc(ptr noundef nonnull align 8 dereferenceable(8) %call, ptr noundef @.str.15)
  %1 = load i32, ptr %it.addr, align 4
  %call3 = call noundef nonnull align 8 dereferenceable(8) ptr @_ZNSolsEj(ptr noundef nonnull align 8 dereferenceable(8) %call2, i32 noundef %1)
  %call4 = call noundef nonnull align 8 dereferenceable(8) ptr @_ZStlsISt11char_traitsIcEERSt13basic_ostreamIcT_ES5_PKc(ptr noundef nonnull align 8 dereferenceable(8) %call3, ptr noundef @.str.16)
  %2 = load i32, ptr %nv.addr, align 4
  %call5 = call noundef nonnull align 8 dereferenceable(8) ptr @_ZNSolsEj(ptr noundef nonnull align 8 dereferenceable(8) %call4, i32 noundef %2)
  %call6 = call noundef nonnull align 8 dereferenceable(8) ptr @_ZStlsISt11char_traitsIcEERSt13basic_ostreamIcT_ES5_PKc(ptr noundef nonnull align 8 dereferenceable(8) %call5, ptr noundef @.str.17)
  %3 = load i32, ptr %fixed.addr, align 4
  %call7 = call noundef nonnull align 8 dereferenceable(8) ptr @_ZNSolsEj(ptr noundef nonnull align 8 dereferenceable(8) %call6, i32 noundef %3)
  %call8 = call noundef nonnull align 8 dereferenceable(8) ptr @_ZStlsISt11char_traitsIcEERSt13basic_ostreamIcT_ES5_PKc(ptr noundef nonnull align 8 dereferenceable(8) %call7, ptr noundef @.str.18)
  %4 = load i32, ptr %unfixed.addr, align 4
  %call9 = call noundef nonnull align 8 dereferenceable(8) ptr @_ZNSolsEj(ptr noundef nonnull align 8 dereferenceable(8) %call8, i32 noundef %4)
  %call10 = call noundef nonnull align 8 dereferenceable(8) ptr @_ZStlsISt11char_traitsIcEERSt13basic_ostreamIcT_ES5_PKc(ptr noundef nonnull align 8 dereferenceable(8) %call9, ptr noundef @.str.19)
  %5 = load i32, ptr %eq.addr, align 4
  %call11 = call noundef nonnull align 8 dereferenceable(8) ptr @_ZNSolsEj(ptr noundef nonnull align 8 dereferenceable(8) %call10, i32 noundef %5)
  %call12 = call noundef nonnull align 8 dereferenceable(8) ptr @_ZStlsISt11char_traitsIcEERSt13basic_ostreamIcT_ES5_PKc(ptr noundef nonnull align 8 dereferenceable(8) %call11, ptr noundef @.str.12)
  ret void
}